target datalayout = "e-m:e-p270:32:32-p271:32:32-p272:64:64-i64:64-i128:128-f80:128-n8:16:32:64-S128"
target triple = "x86_64-pc-linux-gnu"

@hf_lcp_opt_window = internal global i32 0, align 4
@hf_lcp_opt_hdlc_address = internal global i32 0, align 4
@ett_lcp_numbered_mode_opt = internal global i32 0, align 4
@proto_lcp_option_numbered_mode = internal global i32 0, align 4
@.str.1006 = private unnamed_addr constant [1 x i8] zeroinitializer, align 1
@.str.1007 = private unnamed_addr constant [2 x i8] c"s\00", align 1
@.str.1329 = private unnamed_addr constant [11 x i8] c" [invalid]\00", align 1
@.str.1330 = private unnamed_addr constant [13 x i8] c": %u frame%s\00", align 1

; Function Attrs: null_pointer_is_valid sspstrong uwtable
define internal i32 @dissect_lcp_numbered_mode_opt(ptr noundef %0, ptr noundef %1, ptr noundef %2, ptr noundef %3) #1 {
  %5 = alloca i32, align 4
  %6 = alloca ptr, align 8
  %7 = alloca ptr, align 8
  %8 = alloca ptr, align 8
  %9 = alloca ptr, align 8
  %10 = alloca ptr, align 8
  %11 = alloca ptr, align 8
  %12 = alloca ptr, align 8
  %13 = alloca i32, align 4
  %14 = alloca i32, align 4
  %15 = alloca i32, align 4
  %16 = alloca i32, align 4
  store ptr %0, ptr %6, align 8
  store ptr %1, ptr %7, align 8
  store ptr %2, ptr %8, align 8
  store ptr %3, ptr %9, align 8
  call void @llvm.lifetime.start.p0(i64 8, ptr %10) #6
  call void @llvm.lifetime.start.p0(i64 8, ptr %11) #6
  call void @llvm.lifetime.start.p0(i64 8, ptr %12) #6
  call void @llvm.lifetime.start.p0(i64 4, ptr %13) #6
  call void @llvm.lifetime.start.p0(i64 4, ptr %14) #6
  store i32 0, ptr %14, align 4
  call void @llvm.lifetime.start.p0(i64 4, ptr %15) #6
  %17 = load ptr, ptr %6, align 8
  %18 = call i32 @tvb_reported_length(ptr noundef %17)
  store i32 %18, ptr %15, align 4
  %19 = load ptr, ptr %6, align 8
  %20 = load ptr, ptr %7, align 8
  %21 = load ptr, ptr %8, align 8
  %22 = load i32, ptr @proto_lcp_option_numbered_mode, align 4
  %23 = load i32, ptr @ett_lcp_numbered_mode_opt, align 4
  %24 = call zeroext i1 @dissect_lcp_var_opt(ptr noundef %19, ptr noundef %20, ptr noundef %21, i32 noundef %22, i32 noundef %23, i32 noundef 3, ptr noundef %10, ptr noundef %11)
  br i1 %24, label %28, label %25

25:                                               ; preds = %4
  %26 = load ptr, ptr %6, align 8
  %27 = call i32 @tvb_captured_length(ptr noundef %26)
  store i32 %27, ptr %5, align 4
  store i32 1, ptr %16, align 4
  br label %63

28:                                               ; preds = %4
  %29 = load ptr, ptr %10, align 8
  %30 = load i32, ptr @hf_lcp_opt_window, align 4
  %31 = load ptr, ptr %6, align 8
  %32 = load i32, ptr %14, align 4
  %33 = add i32 %32, 2
  %34 = call ptr @proto_tree_add_item_ret_uint(ptr noundef %29, i32 noundef %30, ptr noundef %31, i32 noundef %33, i32 noundef 1, i32 noundef 0, ptr noundef %13)
  store ptr %34, ptr %12, align 8
  %35 = load ptr, ptr %11, align 8
  %36 = load i32, ptr %13, align 4
  %37 = load i32, ptr %13, align 4
  %38 = icmp eq i32 %37, 1
  %39 = select i1 %38, ptr @.str.1006, ptr @.str.1007
  call void (ptr, ptr, ...) @proto_item_append_text(ptr noundef %35, ptr noundef @.str.1330, i32 noundef %36, ptr noundef %39)
  %40 = load i32, ptr %13, align 4
  %41 = icmp eq i32 %40, 0
  br i1 %41, label %45, label %42

42:                                               ; preds = %28
  %43 = load i32, ptr %13, align 4
  %44 = icmp ugt i32 %43, 127
  br i1 %44, label %45, label %48

45:                                               ; preds = %42, %28
  %46 = load ptr, ptr %12, align 8
  call void (ptr, ptr, ...) @proto_item_append_text(ptr noundef %46, ptr noundef @.str.1329)
  %47 = load ptr, ptr %11, align 8
  call void (ptr, ptr, ...) @proto_item_append_text(ptr noundef %47, ptr noundef @.str.1329)
  br label %48

48:                                               ; preds = %45, %42
  %49 = load i32, ptr %15, align 4
  %50 = icmp sgt i32 %49, 3
  br i1 %50, label %51, label %60

51:                                               ; preds = %48
  %52 = load ptr, ptr %10, align 8
  %53 = load i32, ptr @hf_lcp_opt_hdlc_address, align 4
  %54 = load ptr, ptr %6, align 8
  %55 = load i32, ptr %14, align 4
  %56 = add i32 %55, 3
  %57 = load i32, ptr %15, align 4
  %58 = sub i32 %57, 3
  %59 = call ptr @proto_tree_add_item(ptr noundef %52, i32 noundef %53, ptr noundef %54, i32 noundef %56, i32 noundef %58, i32 noundef 0)
  br label %60

60:                                               ; preds = %51, %48
  %61 = load ptr, ptr %6, align 8
  %62 = call i32 @tvb_captured_length(ptr noundef %61)
  store i32 %62, ptr %5, align 4
  store i32 1, ptr %16, align 4
  br label %63

63:                                               ; preds = %60, %25
  call void @llvm.lifetime.end.p0(i64 4, ptr %15) #6
  call void @llvm.lifetime.end.p0(i64 4, ptr %14) #6
  call void @llvm.lifetime.end.p0(i64 4, ptr %13) #6
  call void @llvm.lifetime.end.p0(i64 8, ptr %12) #6
  call void @llvm.lifetime.end.p0(i64 8, ptr %11) #6
  call void @llvm.lifetime.end.p0(i64 8, ptr %10) #6
  %64 = load i32, ptr %5, align 4
  ret i32 %64
}