; Function Attrs: null_pointer_is_valid sspstrong uwtable
define internal i32 @dissect_lcp_numbered_mode_opt(ptr noundef %0, ptr noundef %1, ptr noundef %2, ptr readnone captures(none) %3) #1 {
  %5 = alloca ptr, align 8
  %6 = alloca ptr, align 8
  %7 = alloca i32, align 4
  call void @llvm.lifetime.start.p0(i64 8, ptr nonnull %5) #8
  call void @llvm.lifetime.start.p0(i64 8, ptr nonnull %6) #8
  call void @llvm.lifetime.start.p0(i64 4, ptr nonnull %7) #8
  %8 = tail call i32 @tvb_reported_length(ptr noundef %0)
  %9 = load i32, ptr @proto_lcp_option_numbered_mode, align 4
  %10 = load i32, ptr @ett_lcp_numbered_mode_opt, align 4
  %11 = call fastcc zeroext i1 @dissect_lcp_var_opt(ptr noundef %0, ptr noundef %1, ptr noundef %2, i32 noundef %9, i32 noundef %10, i32 noundef 3, ptr noundef nonnull %5, ptr noundef nonnull %6)
  br i1 %11, label %14, label %12

12:                                               ; preds = %4
  %13 = tail call i32 @tvb_captured_length(ptr noundef %0)
  br label %33

14:                                               ; preds = %4
  %15 = load ptr, ptr %5, align 8
  %16 = load i32, ptr @hf_lcp_opt_window, align 4
  %17 = call ptr @proto_tree_add_item_ret_uint(ptr noundef %15, i32 noundef %16, ptr noundef %0, i32 noundef 2, i32 noundef 1, i32 noundef 0, ptr noundef nonnull %7)
  %18 = load ptr, ptr %6, align 8
  %19 = load i32, ptr %7, align 4
  %20 = icmp eq i32 %19, 1
  %21 = select i1 %20, ptr @.str.1006, ptr @.str.1007
  call void (ptr, ptr, ...) @proto_item_append_text(ptr noundef %18, ptr noundef nonnull @.str.1330, i32 noundef %19, ptr noundef nonnull %21)
  %22 = load i32, ptr %7, align 4
  %23 = add i32 %22, -128
  %or.cond = icmp ult i32 %23, -127
  br i1 %or.cond, label %24, label %25

24:                                               ; preds = %14
  call void (ptr, ptr, ...) @proto_item_append_text(ptr noundef %17, ptr noundef nonnull @.str.1329)
  call void (ptr, ptr, ...) @proto_item_append_text(ptr noundef %18, ptr noundef nonnull @.str.1329)
  br label %25

25:                                               ; preds = %14, %24
  %26 = icmp sgt i32 %8, 3
  br i1 %26, label %27, label %31

27:                                               ; preds = %25
  %28 = load i32, ptr @hf_lcp_opt_hdlc_address, align 4
  %29 = add nsw i32 %8, -3
  %30 = call ptr @proto_tree_add_item(ptr noundef %15, i32 noundef %28, ptr noundef %0, i32 noundef 3, i32 noundef %29, i32 noundef 0)
  br label %31

31:                                               ; preds = %27, %25
  %32 = call i32 @tvb_captured_length(ptr noundef %0)
  br label %33

33:                                               ; preds = %31, %12
  %.0 = phi i32 [ %32, %31 ], [ %13, %12 ]
  call void @llvm.lifetime.end.p0(i64 4, ptr nonnull %7) #8
  call void @llvm.lifetime.end.p0(i64 8, ptr nonnull %6) #8
  call void @llvm.lifetime.end.p0(i64 8, ptr nonnull %5) #8
  ret i32 %.0
}